(lp1
(lp2
VDas Boot
p3
aVHampelmaenner
p4
aa(lp5
VTriceps
p6
aVAusfallschritt Seite
p7
aa(lp8
VSchiebetritt
p9
aVNacken
p10
aa(lp11
VDie Friedensgeste
p12
aVAusfallschritt Vorne
p13
aa(lp14
VMountain Climbers
p15
aVNeun reinigende Atemzuege
p16
aa(lp17
VSchlaege
p18
aVFaustschlaege
p19
aa(lp20
VSeite
p21
aVHampelmaenner
p22
aa(lp23
VRegenbogen
p24
aVOberschenkel Rueckseite
p25
aa(lp26
VHuefte
p27
aVSchuetteln
p28
aa(lp29
VAusfallschritt Seite
p30
aVSuperman
p31
aa.