(lp1
(lp2
VDas Boot
p3
aVTriceps
p4
aa(lp5
VSchiebetritt
p6
aVNacken
p7
aa(lp8
VDie Friedensgeste
p9
aVKniebeuge
p10
aa(lp11
VSeite
p12
aVFaustschlaege
p13
aa(lp14
VOberschenkel Rueckseite
p15
aVAusfallschritt Seite
p16
aa(lp17
VNeun reinigende Atemzuege
p18
aVRegenbogen
p19
aa(lp20
VSchuetteln
p21
aVAusfallschritt Vorne
p22
aa(lp23
VGoldener Hahn
p24
aVBeckenheben
p25
aa.