(lp1
(lp2
VKniebeuge
p3
aVHampelmaenner
p4
aa(lp5
VSchiebetritt
p6
aVTriceps
p7
aa(lp8
VAusfallschritt Seite
p9
aVSuperman
p10
aa(lp11
VNacken
p12
aVFaustschlaege
p13
aa(lp14
VDas Boot
p15
aVSeite
p16
aa(lp17
VBeckenheben
p18
aVDie Friedensgeste
p19
aa(lp20
VOberschenkel Rueckseite
p21
aVLiegestuetze
p22
aa(lp23
VNeun reinigende Atemzuege
p24
aVHuefte
p25
aa.