(lp1
(lp2
VHampelmaenner
p3
aVTriceps
p4
aa(lp5
VSchiebetritt
p6
aVAusfallschritt Seite
p7
aa(lp8
VAusfallschritt Vorne
p9
aVDas Boot
p10
aa(lp11
VMountain Climbers
p12
aVNacken
p13
aa(lp14
VSeite
p15
aVKniebeuge
p16
aa(lp17
VHampelmaenner
p18
aVSuperman
p19
aa(lp20
VBeckenheben
p21
aVAusfallschritt Seite
p22
aa(lp23
VAusfallschritt Vorne
p24
aVDie Friedensgeste
p25
aa(lp26
VNeun reinigende Atemzuege
p27
aVLiegestuetze
p28
aa(lp29
VSchuetteln
p30
aVKniebeuge
p31
aa(lp32
VSuperman
p33
aVMountain Climbers
p34
aa(lp35
VHampelmaenner
p36
aVOberschenkel Rueckseite
p37
aa(lp38
VTriceps
p39
aVBeckenheben
p40
aa(lp41
VLiegestuetze
p42
aVFaustschlaege
p43
aa(lp44
VNacken
p45
aVKniebeuge
p46
aa.