(lp1
(lp2
VKniebeuge
p3
aVHampelmaenner
p4
aa(lp5
VSchiebetritt
p6
aVTriceps
p7
aa(lp8
VDas Boot
p9
aVFaustschlaege
p10
aa(lp11
VSuperman
p12
aVAusfallschritt Seite
p13
aa(lp14
VBeckenheben
p15
aVSeite
p16
aa(lp17
VOberschenkel Rueckseite
p18
aVRegenbogen
p19
aa(lp20
VGoldener Hahn
p21
aVDie Friedensgeste
p22
aa(lp23
VSteigendes Wasser
p24
aVLiegestuetze
p25
aa(lp26
VCrunches
p27
aVAusfallschritt Vorne
p28
aa(lp29
VHuefte
p30
aVKniebeuge
p31
aa.