(lp1
(lp2
VSchiebetritt
p3
aVKniebeuge
p4
aa(lp5
VDas Boot
p6
aVTriceps
p7
aa(lp8
VNacken
p9
aVFaustschlaege
p10
aa(lp11
VSeite
p12
aVSuperman
p13
aa(lp14
VRegenbogen
p15
aVDie Friedensgeste
p16
aa(lp17
VHampelmaenner
p18
aVOberschenkel Rueckseite
p19
aa(lp20
VAusfallschritt Seite
p21
aVNeun reinigende Atemzuege
p22
aa(lp23
VAusfallschritt Vorne
p24
aVTriceps
p25
aa(lp26
VGoldener Hahn
p27
aVBeckenheben
p28
aa.