(lp1
(lp2
VDas Boot
p3
aVKniebeuge
p4
aa(lp5
VDie Friedensgeste
p6
aVTriceps
p7
aa(lp8
VHampelmaenner
p9
aVSuperman
p10
aa(lp11
VFaustschlaege
p12
aVBeckenheben
p13
aa(lp14
VNeun reinigende Atemzuege
p15
aVLiegestuetze
p16
aa(lp17
VSchuetteln
p18
aVAusfallschritt Seite
p19
aa(lp20
VCrunches
p21
aVAusfallschritt Vorne
p22
aa(lp23
VKniebeuge
p24
aVtiefen Entspannung
p25
aa.