(lp1
(lp2
VKniebeuge
p3
aVDas Boot
p4
aa(lp5
VSchiebetritt
p6
aVSuperman
p7
aa(lp8
VFaustschlaege
p9
aVHampelmaenner
p10
aa(lp11
VAusfallschritt Seite
p12
aVBeckenheben
p13
aa(lp14
VDie Friedensgeste
p15
aVTriceps
p16
aa(lp17
VNeun reinigende Atemzuege
p18
aVRegenbogen
p19
aa(lp20
VNacken
p21
aVLiegestuetze
p22
aa(lp23
VSchuetteln
p24
aVAusfallschritt Vorne
p25
aa(lp26
VSeite
p27
aVtiefen Entspannung
p28
aa.