(lp1
(lp2
VTriceps
p3
aVHampelmaenner
p4
aa(lp5
VSchiebetritt
p6
aVAusfallschritt Seite
p7
aa(lp8
VFaustschlaege
p9
aVAusfallschritt Vorne
p10
aa(lp11
VRegenbogen
p12
aVMountain Climbers
p13
aa(lp14
VKniebeuge
p15
aVNacken
p16
aa(lp17
VSchlaege
p18
aVSeite
p19
aa(lp20
VGoldener Hahn
p21
aVHampelmaenner
p22
aa(lp23
VDas Boot
p24
aVSteigendes Wasser
p25
aa.