(lp1
(lp2
VHampelmaenner
p3
aVDas Boot
p4
aa(lp5
VSchiebetritt
p6
aVAusfallschritt Seite
p7
aa(lp8
VDie Friedensgeste
p9
aVTriceps
p10
aa(lp11
VAusfallschritt Vorne
p12
aVKniebeuge
p13
aa(lp14
VNeun reinigende Atemzuege
p15
aVMountain Climbers
p16
aa(lp17
VSchlaege
p18
aVFaustschlaege
p19
aa(lp20
VNacken
p21
aVSuperman
p22
aa(lp23
VRegenbogen
p24
aVSeite
p25
aa(lp26
VSchuetteln
p27
aVGoldener Hahn
p28
aa.