(lp1
(lp2
VTriceps
p3
aVKniebeuge
p4
aa(lp5
VNacken
p6
aVDie Friedensgeste
p7
aa(lp8
VSchiebetritt
p9
aVSeite
p10
aa(lp11
VSuperman
p12
aVNeun reinigende Atemzuege
p13
aa(lp14
VHampelmaenner
p15
aVOberschenkel Rueckseite
p16
aa(lp17
VSchuetteln
p18
aVAusfallschritt Seite
p19
aa(lp20
VFaustschlaege
p21
aVTriceps
p22
aa(lp23
VNacken
p24
aVBeckenheben
p25
aa(lp26
VDas Boot
p27
aVAusfallschritt Vorne
p28
aa(lp29
VDie Friedensgeste
p30
aVMountain Climbers
p31
aa(lp32
VSeite
p33
aVNeun reinigende Atemzuege
p34
aa(lp35
VLiegestuetze
p36
aVSchuetteln
p37
aa(lp38
VHampelmaenner
p39
aVDas Boot
p40
aa.