(lp1
(lp2
VHampelmaenner
p3
aVDas Boot
p4
aa(lp5
VTriceps
p6
aVDie Friedensgeste
p7
aa(lp8
VNacken
p9
aVSchiebetritt
p10
aa(lp11
VNeun reinigende Atemzuege
p12
aVKniebeuge
p13
aa(lp14
VSeite
p15
aVFaustschlaege
p16
aa(lp17
VRegenbogen
p18
aVSchuetteln
p19
aa(lp20
VGoldener Hahn
p21
aVSuperman
p22
aa(lp23
Vtiefen Entspannung
p24
aVOberschenkel Rueckseite
p25
aa.