(lp1
(lp2
VTriceps
p3
aVDas Boot
p4
aa(lp5
VSchiebetritt
p6
aVHampelmaenner
p7
aa(lp8
VNacken
p9
aVFaustschlaege
p10
aa(lp11
VSeite
p12
aVRegenbogen
p13
aa(lp14
VOberschenkel Rueckseite
p15
aVDie Friedensgeste
p16
aa(lp17
VGoldener Hahn
p18
aVAusfallschritt Seite
p19
aa(lp20
VAusfallschritt Vorne
p21
aVTriceps
p22
aa(lp23
VMountain Climbers
p24
aVKniebeuge
p25
aa.