(lp1
(lp2
VHampelmaenner
p3
aVTriceps
p4
aa(lp5
VSchiebetritt
p6
aVAusfallschritt Seite
p7
aa(lp8
VFaustschlaege
p9
aVAusfallschritt Vorne
p10
aa(lp11
VDas Boot
p12
aVNacken
p13
aa(lp14
VSeite
p15
aVKniebeuge
p16
aa(lp17
VDie Friedensgeste
p18
aVOberschenkel Rueckseite
p19
aa(lp20
VMountain Climbers
p21
aVNeun reinigende Atemzuege
p22
aa(lp23
VSchlaege
p24
aVRegenbogen
p25
aa.