(lp1
(lp2
VKniebeuge
p3
aVHampelmaenner
p4
aa(lp5
VAusfallschritt Seite
p6
aVTriceps
p7
aa(lp8
VSuperman
p9
aVSchiebetritt
p10
aa(lp11
VDas Boot
p12
aVNacken
p13
aa(lp14
VFaustschlaege
p15
aVBeckenheben
p16
aa(lp17
VAusfallschritt Vorne
p18
aVLiegestuetze
p19
aa(lp20
VCrunches
p21
aVDie Friedensgeste
p22
aa(lp23
VMountain Climbers
p24
aVRegenbogen
p25
aa.