(lp1
(lp2
VDas Boot
p3
aVSchiebetritt
p4
aa(lp5
VTriceps
p6
aVHampelmaenner
p7
aa(lp8
VDie Friedensgeste
p9
aVSuperman
p10
aa(lp11
VNacken
p12
aVBeckenheben
p13
aa(lp14
VAusfallschritt Seite
p15
aVSeite
p16
aa(lp17
VLiegestuetze
p18
aVFaustschlaege
p19
aa(lp20
VRegenbogen
p21
aVNeun reinigende Atemzuege
p22
aa(lp23
VGoldener Hahn
p24
aVAusfallschritt Vorne
p25
aa(lp26
VSteigendes Wasser
p27
aVOberschenkel Rueckseite
p28
aa(lp29
VSchiebetritt
p30
aVCrunches
p31
aa(lp32
VSchuetteln
p33
aVMountain Climbers
p34
aa(lp35
VKniebeuge
p36
aVtiefen Entspannung
p37
aa.