(lp1
(lp2
VKniebeuge
p3
aVTriceps
p4
aa(lp5
VNacken
p6
aVSuperman
p7
aa(lp8
VBeckenheben
p9
aVSeite
p10
aa(lp11
VOberschenkel Rueckseite
p12
aVHampelmaenner
p13
aa(lp14
VSchiebetritt
p15
aVLiegestuetze
p16
aa(lp17
VHuefte
p18
aVCrunches
p19
aa(lp20
VAusfallschritt Seite
p21
aVDas Boot
p22
aa(lp23
VAusfallschritt Vorne
p24
aVDie Friedensgeste
p25
aa.