(lp1
(lp2
VHampelmaenner
p3
aVDas Boot
p4
aa(lp5
VKniebeuge
p6
aVSchiebetritt
p7
aa(lp8
VAusfallschritt Seite
p9
aVTriceps
p10
aa(lp11
VSuperman
p12
aVDie Friedensgeste
p13
aa(lp14
VBeckenheben
p15
aVMountain Climbers
p16
aa(lp17
VLiegestuetze
p18
aVSchlaege
p19
aa(lp20
VFaustschlaege
p21
aVHampelmaenner
p22
aa(lp23
VAusfallschritt Seite
p24
aVRegenbogen
p25
aa(lp26
VGoldener Hahn
p27
aVAusfallschritt Vorne
p28
aa(lp29
VMountain Climbers
p30
aVCrunches
p31
aa(lp32
VSteigendes Wasser
p33
aVSchlaege
p34
aa(lp35
VKniebeuge
p36
aVSchiebetritt
p37
aa.