(lp1
(lp2
VTriceps
p3
aVHampelmaenner
p4
aa(lp5
VDas Boot
p6
aVAusfallschritt Seite
p7
aa(lp8
VAusfallschritt Vorne
p9
aVKniebeuge
p10
aa(lp11
VSuperman
p12
aVSchiebetritt
p13
aa(lp14
VFaustschlaege
p15
aVBeckenheben
p16
aa(lp17
VRegenbogen
p18
aVNacken
p19
aa(lp20
VLiegestuetze
p21
aVDie Friedensgeste
p22
aa(lp23
VMountain Climbers
p24
aVSeite
p25
aa(lp26
VOberschenkel Rueckseite
p27
aVNeun reinigende Atemzuege
p28
aa.